; Function Attrs: mustprogress nounwind uwtable
define hidden void @_ZN8jniCheck13validate_callEP10JavaThreadP7_jclassP10_jmethodIDP8_jobject(ptr noundef %0, ptr noundef %1, ptr noundef %2, ptr noundef %3) local_unnamed_addr #0 align 2 {
  %5 = tail call noundef ptr @_ZN8jniCheck19validate_jmethod_idEP10JavaThreadP10_jmethodID(ptr noundef %0, ptr noundef %2)
  %6 = getelementptr inbounds i8, ptr %5, i64 8
  %7 = load ptr, ptr %6, align 8
  %8 = getelementptr inbounds i8, ptr %7, i64 8
  %9 = load ptr, ptr %8, align 8
  %10 = getelementptr inbounds i8, ptr %9, i64 24
  %11 = load ptr, ptr %10, align 8
  %.not = icmp eq ptr %1, null
  br i1 %.not, label %_ZNK5Klass13is_subtype_ofEPS_.exit.thread, label %12

12:                                               ; preds = %4
  %13 = tail call noundef ptr @_ZN8jniCheck14validate_classEP10JavaThreadP7_jclassb(ptr noundef %0, ptr noundef nonnull %1, i1 noundef zeroext false)
  %14 = getelementptr inbounds i8, ptr %11, i64 20
  %15 = load i32, ptr %14, align 4
  %16 = zext i32 %15 to i64
  %17 = getelementptr inbounds i8, ptr %13, i64 %16
  %18 = load ptr, ptr %17, align 8
  %19 = icmp eq ptr %18, %11
  br i1 %19, label %_ZNK5Klass13is_subtype_ofEPS_.exit.thread, label %20

20:                                               ; preds = %12
  %.not.i = icmp eq i32 %15, 32
  br i1 %.not.i, label %_ZNK5Klass13is_subtype_ofEPS_.exit, label %_ZNK5Klass13is_subtype_ofEPS_.exit.thread24

_ZNK5Klass13is_subtype_ofEPS_.exit:               ; preds = %20
  %21 = tail call noundef zeroext i1 @_ZNK5Klass23search_secondary_supersEPS_(ptr noundef nonnull align 8 dereferenceable(196) %13, ptr noundef nonnull %11) #11
  br i1 %21, label %_ZNK5Klass13is_subtype_ofEPS_.exit.thread, label %_ZNK5Klass13is_subtype_ofEPS_.exit.thread24

_ZNK5Klass13is_subtype_ofEPS_.exit.thread24:      ; preds = %20, %_ZNK5Klass13is_subtype_ofEPS_.exit
  %22 = load ptr, ptr @tty, align 8
  tail call void (ptr, ptr, ...) @_ZN12outputStream8print_crEPKcz(ptr noundef nonnull align 8 dereferenceable(56) %22, ptr noundef nonnull @.str.126, ptr noundef nonnull @.str.128) #11
  tail call void @_ZN10JavaThread15print_jni_stackEv(ptr noundef nonnull align 8 dereferenceable(1800) %0) #11
  tail call void @_ZN2os5abortEb(i1 noundef zeroext true) #12
  unreachable

_ZNK5Klass13is_subtype_ofEPS_.exit.thread:        ; preds = %12, %_ZNK5Klass13is_subtype_ofEPS_.exit, %4
  %.not17 = icmp eq ptr %3, null
  br i1 %.not17, label %_ZNK5Klass13is_subtype_ofEPS_.exit21.thread, label %23

23:                                               ; preds = %_ZNK5Klass13is_subtype_ofEPS_.exit.thread
  %24 = tail call noundef ptr @_ZN8jniCheck15validate_objectEP10JavaThreadP8_jobject(ptr noundef %0, ptr noundef nonnull %3)
  %25 = load i8, ptr @UseCompressedClassPointers, align 1
  %26 = trunc i8 %25 to i1
  %27 = getelementptr inbounds i8, ptr %24, i64 8
  br i1 %26, label %28, label %38

28:                                               ; preds = %23
  %29 = load i32, ptr %27, align 8
  %30 = load ptr, ptr @_ZN23CompressedKlassPointers5_baseE, align 8
  %31 = load i32, ptr @_ZN23CompressedKlassPointers6_shiftE, align 4
  %32 = ptrtoint ptr %30 to i64
  %33 = zext i32 %29 to i64
  %34 = zext nneg i32 %31 to i64
  %35 = shl i64 %33, %34
  %36 = add i64 %35, %32
  %37 = inttoptr i64 %36 to ptr
  br label %_ZNK7oopDesc5klassEv.exit

38:                                               ; preds = %23
  %39 = load ptr, ptr %27, align 8
  br label %_ZNK7oopDesc5klassEv.exit

_ZNK7oopDesc5klassEv.exit:                        ; preds = %28, %38
  %.0.i18 = phi ptr [ %37, %28 ], [ %39, %38 ]
  %40 = getelementptr inbounds i8, ptr %11, i64 20
  %41 = load i32, ptr %40, align 4
  %42 = zext i32 %41 to i64
  %43 = getelementptr inbounds i8, ptr %.0.i18, i64 %42
  %44 = load ptr, ptr %43, align 8
  %45 = icmp eq ptr %44, %11
  br i1 %45, label %_ZNK5Klass13is_subtype_ofEPS_.exit21.thread, label %46

46:                                               ; preds = %_ZNK7oopDesc5klassEv.exit
  %.not.i19 = icmp eq i32 %41, 32
  br i1 %.not.i19, label %_ZNK5Klass13is_subtype_ofEPS_.exit21, label %_ZNK5Klass13is_subtype_ofEPS_.exit21.thread27

_ZNK5Klass13is_subtype_ofEPS_.exit21:             ; preds = %46
  %47 = tail call noundef zeroext i1 @_ZNK5Klass23search_secondary_supersEPS_(ptr noundef nonnull align 8 dereferenceable(196) %.0.i18, ptr noundef nonnull %11) #11
  br i1 %47, label %_ZNK5Klass13is_subtype_ofEPS_.exit21.thread, label %_ZNK5Klass13is_subtype_ofEPS_.exit21.thread27

_ZNK5Klass13is_subtype_ofEPS_.exit21.thread27:    ; preds = %46, %_ZNK5Klass13is_subtype_ofEPS_.exit21
  %48 = load ptr, ptr @tty, align 8
  tail call void (ptr, ptr, ...) @_ZN12outputStream8print_crEPKcz(ptr noundef nonnull align 8 dereferenceable(56) %48, ptr noundef nonnull @.str.126, ptr noundef nonnull @.str.128) #11
  tail call void @_ZN10JavaThread15print_jni_stackEv(ptr noundef nonnull align 8 dereferenceable(1800) %0) #11
  tail call void @_ZN2os5abortEb(i1 noundef zeroext true) #12
  unreachable

_ZNK5Klass13is_subtype_ofEPS_.exit21.thread:      ; preds = %_ZNK7oopDesc5klassEv.exit, %_ZNK5Klass13is_subtype_ofEPS_.exit21, %_ZNK5Klass13is_subtype_ofEPS_.exit.thread
  ret void
}